target datalayout = "e-m:e-p270:32:32-p271:32:32-p272:64:64-i64:64-i128:128-f80:128-n8:16:32:64-S128"
target triple = "x86_64-pc-linux-gnu"

; Function Attrs: nounwind uwtable
define internal i32 @php_array_key_compare_string_natural(ptr noundef %0, ptr noundef %1) #0 {
  %3 = alloca i32, align 4
  %4 = alloca ptr, align 8
  %5 = alloca ptr, align 8
  %6 = alloca i32, align 4
  %7 = alloca i32, align 4
  store ptr %0, ptr %4, align 8, !tbaa !85
  store ptr %1, ptr %5, align 8, !tbaa !85
  br label %8

8:                                                ; preds = %2
  call void @llvm.lifetime.start.p0(i64 4, ptr %6) #17
  %9 = load ptr, ptr %4, align 8, !tbaa !85
  %10 = load ptr, ptr %5, align 8, !tbaa !85
  %11 = call i32 @php_array_key_compare_string_natural_general(ptr noundef %9, ptr noundef %10, i32 noundef 0)
  store i32 %11, ptr %6, align 4, !tbaa !4
  %12 = load i32, ptr %6, align 4, !tbaa !4
  %13 = icmp ne i32 %12, 0
  %14 = xor i1 %13, true
  %15 = xor i1 %14, true
  %16 = zext i1 %15 to i32
  %17 = sext i32 %16 to i64
  %18 = call i64 @llvm.expect.i64(i64 %17, i64 1)
  %19 = icmp ne i64 %18, 0
  br i1 %19, label %20, label %22

20:                                               ; preds = %8
  %21 = load i32, ptr %6, align 4, !tbaa !4
  store i32 %21, ptr %3, align 4
  store i32 1, ptr %7, align 4
  br label %26

22:                                               ; preds = %8
  %23 = load ptr, ptr %4, align 8, !tbaa !85
  %24 = load ptr, ptr %5, align 8, !tbaa !85
  %25 = call i32 @stable_sort_fallback(ptr noundef %23, ptr noundef %24)
  store i32 %25, ptr %3, align 4
  store i32 1, ptr %7, align 4
  br label %26

26:                                               ; preds = %22, %20
  call void @llvm.lifetime.end.p0(i64 4, ptr %6) #17
  br label %27

27:                                               ; preds = %26
  %28 = load i32, ptr %3, align 4
  ret i32 %28
}